target datalayout = "e-m:e-p270:32:32-p271:32:32-p272:64:64-i64:64-i128:128-f80:128-n8:16:32:64-S128"
target triple = "x86_64-pc-linux-gnu"

@.str.14 = private unnamed_addr constant [36 x i8] c"../openssl/test/verify_extra_test.c\00", align 1
@.str.43 = private unnamed_addr constant [26 x i8] c"X509_self_signed(cert, 1)\00", align 1
@.str.44 = private unnamed_addr constant [9 x i8] c"expected\00", align 1
@.str.45 = private unnamed_addr constant [28 x i8] c"sk_X509_push(trusted, cert)\00", align 1
@.str.46 = private unnamed_addr constant [43 x i8] c"X509_STORE_CTX_init(ctx, NULL, cert, NULL)\00", align 1
@.str.47 = private unnamed_addr constant [22 x i8] c"X509_verify_cert(ctx)\00", align 1

; Function Attrs: inlinehint nounwind uwtable
define internal ptr @ossl_check_X509_type(ptr noundef %0) #3 {
  %2 = alloca ptr, align 8
  store ptr %0, ptr %2, align 8, !tbaa !11
  %3 = load ptr, ptr %2, align 8, !tbaa !11
  ret ptr %3
}

; Function Attrs: inlinehint nounwind uwtable
define internal ptr @ossl_check_X509_sk_type(ptr noundef %0) #3 {
  %2 = alloca ptr, align 8
  store ptr %0, ptr %2, align 8, !tbaa !13
  %3 = load ptr, ptr %2, align 8, !tbaa !13
  ret ptr %3
}

; Function Attrs: nounwind uwtable
define internal i32 @test_self_signed(ptr noundef %0, i32 noundef %1, i32 noundef %2) #0 {
  %4 = alloca ptr, align 8
  %5 = alloca i32, align 4
  %6 = alloca i32, align 4
  %7 = alloca ptr, align 8
  %8 = alloca ptr, align 8
  %9 = alloca ptr, align 8
  %10 = alloca i32, align 4
  store ptr %0, ptr %4, align 8, !tbaa !4
  store i32 %1, ptr %5, align 4, !tbaa !9
  store i32 %2, ptr %6, align 4, !tbaa !9
  call void @llvm.lifetime.start.p0(i64 8, ptr %7) #5
  %11 = load ptr, ptr %4, align 8, !tbaa !4
  %12 = call ptr @load_cert_pem(ptr noundef %11, ptr noundef null)
  store ptr %12, ptr %7, align 8, !tbaa !11
  call void @llvm.lifetime.start.p0(i64 8, ptr %8) #5
  %13 = call ptr @OPENSSL_sk_new_null()
  store ptr %13, ptr %8, align 8, !tbaa !13
  call void @llvm.lifetime.start.p0(i64 8, ptr %9) #5
  %14 = call ptr @X509_STORE_CTX_new()
  store ptr %14, ptr %9, align 8, !tbaa !15
  call void @llvm.lifetime.start.p0(i64 4, ptr %10) #5
  %15 = load ptr, ptr %7, align 8, !tbaa !11
  %16 = call i32 @X509_self_signed(ptr noundef %15, i32 noundef 1)
  %17 = load i32, ptr %6, align 4, !tbaa !9
  %18 = call i32 @test_int_eq(ptr noundef @.str.14, i32 noundef 188, ptr noundef @.str.43, ptr noundef @.str.44, i32 noundef %16, i32 noundef %17)
  store i32 %18, ptr %10, align 4, !tbaa !9
  %19 = load ptr, ptr %7, align 8, !tbaa !11
  %20 = icmp ne ptr %19, null
  br i1 %20, label %21, label %67

21:                                               ; preds = %3
  %22 = load i32, ptr %5, align 4, !tbaa !9
  %23 = icmp ne i32 %22, 0
  br i1 %23, label %24, label %40

24:                                               ; preds = %21
  %25 = load i32, ptr %10, align 4, !tbaa !9
  %26 = icmp ne i32 %25, 0
  br i1 %26, label %27, label %37

27:                                               ; preds = %24
  %28 = load ptr, ptr %8, align 8, !tbaa !13
  %29 = call ptr @ossl_check_X509_sk_type(ptr noundef %28)
  %30 = load ptr, ptr %7, align 8, !tbaa !11
  %31 = call ptr @ossl_check_X509_type(ptr noundef %30)
  %32 = call i32 @OPENSSL_sk_push(ptr noundef %29, ptr noundef %31)
  %33 = icmp ne i32 %32, 0
  %34 = zext i1 %33 to i32
  %35 = call i32 @test_true(ptr noundef @.str.14, i32 noundef 192, ptr noundef @.str.45, i32 noundef %34)
  %36 = icmp ne i32 %35, 0
  br label %37

37:                                               ; preds = %27, %24
  %38 = phi i1 [ false, %24 ], [ %36, %27 ]
  %39 = zext i1 %38 to i32
  store i32 %39, ptr %10, align 4, !tbaa !9
  br label %40

40:                                               ; preds = %37, %21
  %41 = load i32, ptr %10, align 4, !tbaa !9
  %42 = icmp ne i32 %41, 0
  br i1 %42, label %43, label %51

43:                                               ; preds = %40
  %44 = load ptr, ptr %9, align 8, !tbaa !15
  %45 = load ptr, ptr %7, align 8, !tbaa !11
  %46 = call i32 @X509_STORE_CTX_init(ptr noundef %44, ptr noundef null, ptr noundef %45, ptr noundef null)
  %47 = icmp ne i32 %46, 0
  %48 = zext i1 %47 to i32
  %49 = call i32 @test_true(ptr noundef @.str.14, i32 noundef 193, ptr noundef @.str.46, i32 noundef %48)
  %50 = icmp ne i32 %49, 0
  br label %51

51:                                               ; preds = %43, %40
  %52 = phi i1 [ false, %40 ], [ %50, %43 ]
  %53 = zext i1 %52 to i32
  store i32 %53, ptr %10, align 4, !tbaa !9
  %54 = load ptr, ptr %9, align 8, !tbaa !15
  %55 = load ptr, ptr %8, align 8, !tbaa !13
  call void @X509_STORE_CTX_set0_trusted_stack(ptr noundef %54, ptr noundef %55)
  %56 = load i32, ptr %10, align 4, !tbaa !9
  %57 = icmp ne i32 %56, 0
  br i1 %57, label %58, label %64

58:                                               ; preds = %51
  %59 = load ptr, ptr %9, align 8, !tbaa !15
  %60 = call i32 @X509_verify_cert(ptr noundef %59)
  %61 = load i32, ptr %6, align 4, !tbaa !9
  %62 = call i32 @test_int_eq(ptr noundef @.str.14, i32 noundef 195, ptr noundef @.str.47, ptr noundef @.str.44, i32 noundef %60, i32 noundef %61)
  %63 = icmp ne i32 %62, 0
  br label %64

64:                                               ; preds = %58, %51
  %65 = phi i1 [ false, %51 ], [ %63, %58 ]
  %66 = zext i1 %65 to i32
  store i32 %66, ptr %10, align 4, !tbaa !9
  br label %67

67:                                               ; preds = %64, %3
  %68 = load ptr, ptr %9, align 8, !tbaa !15
  call void @X509_STORE_CTX_free(ptr noundef %68)
  %69 = load ptr, ptr %8, align 8, !tbaa !13
  %70 = call ptr @ossl_check_X509_sk_type(ptr noundef %69)
  call void @OPENSSL_sk_free(ptr noundef %70)
  %71 = load ptr, ptr %7, align 8, !tbaa !11
  call void @X509_free(ptr noundef %71)
  %72 = load i32, ptr %10, align 4, !tbaa !9
  call void @llvm.lifetime.end.p0(i64 4, ptr %10) #5
  call void @llvm.lifetime.end.p0(i64 8, ptr %9) #5
  call void @llvm.lifetime.end.p0(i64 8, ptr %8) #5
  call void @llvm.lifetime.end.p0(i64 8, ptr %7) #5
  ret i32 %72
}