; Function Attrs: nounwind uwtable
define internal fastcc i32 @test_self_signed(ptr noundef %0, i32 noundef range(i32 0, 2) %1, i32 noundef range(i32 -1, 2) %2) unnamed_addr #1 {
  %4 = tail call ptr @load_cert_pem(ptr noundef %0, ptr noundef null) #3
  %5 = tail call ptr @OPENSSL_sk_new_null() #3
  %6 = tail call ptr @X509_STORE_CTX_new() #3
  %7 = tail call i32 @X509_self_signed(ptr noundef %4, i32 noundef 1) #3
  %8 = tail call i32 @test_int_eq(ptr noundef nonnull @.str.14, i32 noundef 188, ptr noundef nonnull @.str.43, ptr noundef nonnull @.str.44, i32 noundef %7, i32 noundef %2) #3
  %.not = icmp eq ptr %4, null
  br i1 %.not, label %29, label %9

9:                                                ; preds = %3
  %.not20 = icmp eq i32 %1, 0
  br i1 %.not20, label %18, label %10

10:                                               ; preds = %9
  %.not21 = icmp eq i32 %8, 0
  br i1 %.not21, label %.critedge, label %11

11:                                               ; preds = %10
  %12 = tail call i32 @OPENSSL_sk_push(ptr noundef %5, ptr noundef nonnull %4) #3
  %13 = icmp ne i32 %12, 0
  %14 = zext i1 %13 to i32
  %15 = tail call i32 @test_true(ptr noundef nonnull @.str.14, i32 noundef 192, ptr noundef nonnull @.str.45, i32 noundef %14) #3
  %16 = icmp ne i32 %15, 0
  %17 = zext i1 %16 to i32
  br label %18

18:                                               ; preds = %11, %9
  %.1 = phi i32 [ %8, %9 ], [ %17, %11 ]
  %.not22 = icmp eq i32 %.1, 0
  br i1 %.not22, label %.critedge, label %19

19:                                               ; preds = %18
  %20 = tail call i32 @X509_STORE_CTX_init(ptr noundef %6, ptr noundef null, ptr noundef nonnull %4, ptr noundef null) #3
  %21 = icmp ne i32 %20, 0
  %22 = zext i1 %21 to i32
  %23 = tail call i32 @test_true(ptr noundef nonnull @.str.14, i32 noundef 193, ptr noundef nonnull @.str.46, i32 noundef %22) #3
  %.not25 = icmp eq i32 %23, 0
  tail call void @X509_STORE_CTX_set0_trusted_stack(ptr noundef %6, ptr noundef %5) #3
  br i1 %.not25, label %29, label %24

24:                                               ; preds = %19
  %25 = tail call i32 @X509_verify_cert(ptr noundef %6) #3
  %26 = tail call i32 @test_int_eq(ptr noundef nonnull @.str.14, i32 noundef 195, ptr noundef nonnull @.str.47, ptr noundef nonnull @.str.44, i32 noundef %25, i32 noundef %2) #3
  %27 = icmp ne i32 %26, 0
  %28 = zext i1 %27 to i32
  br label %29

.critedge:                                        ; preds = %10, %18
  tail call void @X509_STORE_CTX_set0_trusted_stack(ptr noundef %6, ptr noundef %5) #3
  br label %29

29:                                               ; preds = %19, %24, %.critedge, %3
  %.0 = phi i32 [ %8, %3 ], [ 0, %19 ], [ %28, %24 ], [ 0, %.critedge ]
  tail call void @X509_STORE_CTX_free(ptr noundef %6) #3
  tail call void @OPENSSL_sk_free(ptr noundef %5) #3
  tail call void @X509_free(ptr noundef %4) #3
  ret i32 %.0
}